target datalayout = "e-m:e-p270:32:32-p271:32:32-p272:64:64-i64:64-i128:128-f80:128-n8:16:32:64-S128"
target triple = "x86_64-pc-linux-gnu"

%struct.aiString = type { i32, [1024 x i8] }
%struct.aiAnimation = type { %struct.aiString, double, double, i32, ptr, i32, ptr, i32, ptr }

; Function Attrs: mustprogress nounwind uwtable
define linkonce_odr hidden noundef nonnull align 4 dereferenceable(1028) ptr @_ZN8aiStringaSERKS_(ptr noundef nonnull align 4 dereferenceable(1028) %0, ptr noundef nonnull align 4 dereferenceable(1028) %1) #4 comdat align 2 {
  %3 = alloca ptr, align 8
  %4 = alloca ptr, align 8
  %5 = alloca ptr, align 8
  store ptr %0, ptr %4, align 8
  store ptr %1, ptr %5, align 8
  %6 = load ptr, ptr %4, align 8
  %7 = load ptr, ptr %5, align 8
  %8 = icmp eq ptr %6, %7
  br i1 %8, label %9, label %10

9:                                                ; preds = %2
  store ptr %6, ptr %3, align 8
  br label %35

10:                                               ; preds = %2
  %11 = load ptr, ptr %5, align 8
  %12 = getelementptr inbounds nuw %struct.aiString, ptr %11, i32 0, i32 0
  %13 = load i32, ptr %12, align 4
  %14 = getelementptr inbounds nuw %struct.aiString, ptr %6, i32 0, i32 0
  store i32 %13, ptr %14, align 4
  %15 = getelementptr inbounds nuw %struct.aiString, ptr %6, i32 0, i32 0
  %16 = load i32, ptr %15, align 4
  %17 = zext i32 %16 to i64
  %18 = icmp ugt i64 %17, 1023
  br i1 %18, label %19, label %21

19:                                               ; preds = %10
  %20 = getelementptr inbounds nuw %struct.aiString, ptr %6, i32 0, i32 0
  store i32 1023, ptr %20, align 4
  br label %21

21:                                               ; preds = %19, %10
  %22 = getelementptr inbounds nuw %struct.aiString, ptr %6, i32 0, i32 1
  %23 = getelementptr inbounds [1024 x i8], ptr %22, i64 0, i64 0
  %24 = load ptr, ptr %5, align 8
  %25 = getelementptr inbounds nuw %struct.aiString, ptr %24, i32 0, i32 1
  %26 = getelementptr inbounds [1024 x i8], ptr %25, i64 0, i64 0
  %27 = getelementptr inbounds nuw %struct.aiString, ptr %6, i32 0, i32 0
  %28 = load i32, ptr %27, align 4
  %29 = zext i32 %28 to i64
  call void @llvm.memcpy.p0.p0.i64(ptr align 4 %23, ptr align 4 %26, i64 %29, i1 false)
  %30 = getelementptr inbounds nuw %struct.aiString, ptr %6, i32 0, i32 1
  %31 = getelementptr inbounds nuw %struct.aiString, ptr %6, i32 0, i32 0
  %32 = load i32, ptr %31, align 4
  %33 = zext i32 %32 to i64
  %34 = getelementptr inbounds nuw [1024 x i8], ptr %30, i64 0, i64 %33
  store i8 0, ptr %34, align 1
  store ptr %6, ptr %3, align 8
  br label %35

35:                                               ; preds = %21, %9
  %36 = load ptr, ptr %3, align 8
  ret ptr %36
}

; Function Attrs: mustprogress nounwind uwtable
define linkonce_odr hidden void @_ZN8aiStringC2Ev(ptr noundef nonnull align 4 dereferenceable(1028) %0) unnamed_addr #4 comdat align 2 {
  %2 = alloca ptr, align 8
  store ptr %0, ptr %2, align 8
  %3 = load ptr, ptr %2, align 8
  %4 = getelementptr inbounds nuw %struct.aiString, ptr %3, i32 0, i32 0
  store i32 0, ptr %4, align 4
  %5 = getelementptr inbounds nuw %struct.aiString, ptr %3, i32 0, i32 1
  call void @llvm.memset.p0.i64(ptr align 4 %5, i8 0, i64 1024, i1 false)
  ret void
}

; Function Attrs: inlinehint mustprogress uwtable
define linkonce_odr hidden void @_ZN6Assimp12CopyPtrArrayI15aiMeshMorphAnimEEvRPPT_PKPKS2_j(ptr noundef nonnull align 8 dereferenceable(8) %0, ptr noundef %1, i32 noundef %2) #3 comdat {
  %4 = alloca ptr, align 8
  %5 = alloca ptr, align 8
  %6 = alloca i32, align 4
  %7 = alloca i32, align 4
  store ptr %0, ptr %4, align 8
  store ptr %1, ptr %5, align 8
  store i32 %2, ptr %6, align 4
  %8 = load i32, ptr %6, align 4
  %9 = icmp ne i32 %8, 0
  br i1 %9, label %12, label %10

10:                                               ; preds = %3
  %11 = load ptr, ptr %4, align 8
  store ptr null, ptr %11, align 8
  br label %40

12:                                               ; preds = %3
  %13 = load i32, ptr %6, align 4
  %14 = zext i32 %13 to i64
  %15 = call { i64, i1 } @llvm.umul.with.overflow.i64(i64 %14, i64 8)
  %16 = extractvalue { i64, i1 } %15, 1
  %17 = extractvalue { i64, i1 } %15, 0
  %18 = select i1 %16, i64 -1, i64 %17
  %19 = call noalias noundef nonnull ptr @_Znam(i64 noundef %18) #19
  %20 = load ptr, ptr %4, align 8
  store ptr %19, ptr %20, align 8
  call void @llvm.lifetime.start.p0(i64 4, ptr %7) #17
  store i32 0, ptr %7, align 4
  br label %21

21:                                               ; preds = %37, %12
  %22 = load i32, ptr %7, align 4
  %23 = load i32, ptr %6, align 4
  %24 = icmp ult i32 %22, %23
  br i1 %24, label %26, label %25

25:                                               ; preds = %21
  call void @llvm.lifetime.end.p0(i64 4, ptr %7) #17
  br label %40

26:                                               ; preds = %21
  %27 = load ptr, ptr %4, align 8
  %28 = load ptr, ptr %27, align 8
  %29 = load i32, ptr %7, align 4
  %30 = zext i32 %29 to i64
  %31 = getelementptr inbounds nuw ptr, ptr %28, i64 %30
  %32 = load ptr, ptr %5, align 8
  %33 = load i32, ptr %7, align 4
  %34 = zext i32 %33 to i64
  %35 = getelementptr inbounds nuw ptr, ptr %32, i64 %34
  %36 = load ptr, ptr %35, align 8
  call void @_ZN6Assimp13SceneCombiner4CopyEPP15aiMeshMorphAnimPKS1_(ptr noundef %31, ptr noundef %36)
  br label %37

37:                                               ; preds = %26
  %38 = load i32, ptr %7, align 4
  %39 = add i32 %38, 1
  store i32 %39, ptr %7, align 4
  br label %21, !llvm.loop !89

40:                                               ; preds = %10, %25
  ret void
}

; Function Attrs: inlinehint mustprogress uwtable
define linkonce_odr hidden void @_ZN6Assimp12CopyPtrArrayI10aiNodeAnimEEvRPPT_PKPKS2_j(ptr noundef nonnull align 8 dereferenceable(8) %0, ptr noundef %1, i32 noundef %2) #3 comdat {
  %4 = alloca ptr, align 8
  %5 = alloca ptr, align 8
  %6 = alloca i32, align 4
  %7 = alloca i32, align 4
  store ptr %0, ptr %4, align 8
  store ptr %1, ptr %5, align 8
  store i32 %2, ptr %6, align 4
  %8 = load i32, ptr %6, align 4
  %9 = icmp ne i32 %8, 0
  br i1 %9, label %12, label %10

10:                                               ; preds = %3
  %11 = load ptr, ptr %4, align 8
  store ptr null, ptr %11, align 8
  br label %40

12:                                               ; preds = %3
  %13 = load i32, ptr %6, align 4
  %14 = zext i32 %13 to i64
  %15 = call { i64, i1 } @llvm.umul.with.overflow.i64(i64 %14, i64 8)
  %16 = extractvalue { i64, i1 } %15, 1
  %17 = extractvalue { i64, i1 } %15, 0
  %18 = select i1 %16, i64 -1, i64 %17
  %19 = call noalias noundef nonnull ptr @_Znam(i64 noundef %18) #19
  %20 = load ptr, ptr %4, align 8
  store ptr %19, ptr %20, align 8
  call void @llvm.lifetime.start.p0(i64 4, ptr %7) #17
  store i32 0, ptr %7, align 4
  br label %21

21:                                               ; preds = %37, %12
  %22 = load i32, ptr %7, align 4
  %23 = load i32, ptr %6, align 4
  %24 = icmp ult i32 %22, %23
  br i1 %24, label %26, label %25

25:                                               ; preds = %21
  call void @llvm.lifetime.end.p0(i64 4, ptr %7) #17
  br label %40

26:                                               ; preds = %21
  %27 = load ptr, ptr %4, align 8
  %28 = load ptr, ptr %27, align 8
  %29 = load i32, ptr %7, align 4
  %30 = zext i32 %29 to i64
  %31 = getelementptr inbounds nuw ptr, ptr %28, i64 %30
  %32 = load ptr, ptr %5, align 8
  %33 = load i32, ptr %7, align 4
  %34 = zext i32 %33 to i64
  %35 = getelementptr inbounds nuw ptr, ptr %32, i64 %34
  %36 = load ptr, ptr %35, align 8
  call void @_ZN6Assimp13SceneCombiner4CopyEPP10aiNodeAnimPKS1_(ptr noundef %31, ptr noundef %36)
  br label %37

37:                                               ; preds = %26
  %38 = load i32, ptr %7, align 4
  %39 = add i32 %38, 1
  store i32 %39, ptr %7, align 4
  br label %21, !llvm.loop !88

40:                                               ; preds = %10, %25
  ret void
}

; Function Attrs: inlinehint mustprogress nounwind uwtable
define linkonce_odr hidden noundef nonnull align 8 dereferenceable(1096) ptr @_ZN11aiAnimationaSERKS_(ptr noundef nonnull align 8 dereferenceable(1096) %0, ptr noundef nonnull align 8 dereferenceable(1096) %1) #2 comdat align 2 {
  %3 = alloca ptr, align 8
  %4 = alloca ptr, align 8
  store ptr %0, ptr %3, align 8
  store ptr %1, ptr %4, align 8
  %5 = load ptr, ptr %3, align 8
  %6 = getelementptr inbounds nuw %struct.aiAnimation, ptr %5, i32 0, i32 0
  %7 = load ptr, ptr %4, align 8
  %8 = getelementptr inbounds nuw %struct.aiAnimation, ptr %7, i32 0, i32 0
  %9 = call noundef nonnull align 4 dereferenceable(1028) ptr @_ZN8aiStringaSERKS_(ptr noundef nonnull align 4 dereferenceable(1028) %6, ptr noundef nonnull align 4 dereferenceable(1028) %8)
  %10 = getelementptr inbounds nuw %struct.aiAnimation, ptr %5, i32 0, i32 1
  %11 = load ptr, ptr %4, align 8
  %12 = getelementptr inbounds nuw %struct.aiAnimation, ptr %11, i32 0, i32 1
  call void @llvm.memcpy.p0.p0.i64(ptr align 8 %10, ptr align 8 %12, i64 64, i1 false)
  ret ptr %5
}

; Function Attrs: mustprogress nounwind uwtable
define linkonce_odr hidden void @_ZN11aiAnimationC2Ev(ptr noundef nonnull align 8 dereferenceable(1096) %0) unnamed_addr #4 comdat align 2 {
  %2 = alloca ptr, align 8
  store ptr %0, ptr %2, align 8
  %3 = load ptr, ptr %2, align 8
  %4 = getelementptr inbounds nuw %struct.aiAnimation, ptr %3, i32 0, i32 0
  call void @_ZN8aiStringC2Ev(ptr noundef nonnull align 4 dereferenceable(1028) %4) #17
  %5 = getelementptr inbounds nuw %struct.aiAnimation, ptr %3, i32 0, i32 1
  store double -1.000000e+00, ptr %5, align 8
  %6 = getelementptr inbounds nuw %struct.aiAnimation, ptr %3, i32 0, i32 2
  store double 0.000000e+00, ptr %6, align 8
  %7 = getelementptr inbounds nuw %struct.aiAnimation, ptr %3, i32 0, i32 3
  store i32 0, ptr %7, align 8
  %8 = getelementptr inbounds nuw %struct.aiAnimation, ptr %3, i32 0, i32 4
  store ptr null, ptr %8, align 8
  %9 = getelementptr inbounds nuw %struct.aiAnimation, ptr %3, i32 0, i32 5
  store i32 0, ptr %9, align 8
  %10 = getelementptr inbounds nuw %struct.aiAnimation, ptr %3, i32 0, i32 6
  store ptr null, ptr %10, align 8
  %11 = getelementptr inbounds nuw %struct.aiAnimation, ptr %3, i32 0, i32 7
  store i32 0, ptr %11, align 8
  %12 = getelementptr inbounds nuw %struct.aiAnimation, ptr %3, i32 0, i32 8
  store ptr null, ptr %12, align 8
  ret void
}

; Function Attrs: mustprogress uwtable
define void @_ZN6Assimp13SceneCombiner4CopyEPP11aiAnimationPKS1_(ptr noundef %0, ptr noundef %1) #0 align 2 {
  %3 = alloca ptr, align 8
  %4 = alloca ptr, align 8
  %5 = alloca ptr, align 8
  store ptr %0, ptr %3, align 8
  store ptr %1, ptr %4, align 8
  %6 = load ptr, ptr %3, align 8
  %7 = icmp eq ptr null, %6
  br i1 %7, label %11, label %8

8:                                                ; preds = %2
  %9 = load ptr, ptr %4, align 8
  %10 = icmp eq ptr null, %9
  br i1 %10, label %11, label %12

11:                                               ; preds = %8, %2
  br label %34

12:                                               ; preds = %8
  call void @llvm.lifetime.start.p0(i64 8, ptr %5) #17
  %13 = call noalias noundef nonnull ptr @_Znwm(i64 noundef 1096) #19
  call void @_ZN11aiAnimationC2Ev(ptr noundef nonnull align 8 dereferenceable(1096) %13) #17
  %14 = load ptr, ptr %3, align 8
  store ptr %13, ptr %14, align 8
  store ptr %13, ptr %5, align 8
  %15 = load ptr, ptr %4, align 8
  %16 = load ptr, ptr %5, align 8
  %17 = call noundef nonnull align 8 dereferenceable(1096) ptr @_ZN11aiAnimationaSERKS_(ptr noundef nonnull align 8 dereferenceable(1096) %16, ptr noundef nonnull align 8 dereferenceable(1096) %15)
  %18 = load ptr, ptr %5, align 8
  %19 = getelementptr inbounds nuw %struct.aiAnimation, ptr %18, i32 0, i32 4
  %20 = load ptr, ptr %4, align 8
  %21 = getelementptr inbounds nuw %struct.aiAnimation, ptr %20, i32 0, i32 4
  %22 = load ptr, ptr %21, align 8
  %23 = load ptr, ptr %5, align 8
  %24 = getelementptr inbounds nuw %struct.aiAnimation, ptr %23, i32 0, i32 3
  %25 = load i32, ptr %24, align 8
  call void @_ZN6Assimp12CopyPtrArrayI10aiNodeAnimEEvRPPT_PKPKS2_j(ptr noundef nonnull align 8 dereferenceable(8) %19, ptr noundef %22, i32 noundef %25)
  %26 = load ptr, ptr %5, align 8
  %27 = getelementptr inbounds nuw %struct.aiAnimation, ptr %26, i32 0, i32 8
  %28 = load ptr, ptr %4, align 8
  %29 = getelementptr inbounds nuw %struct.aiAnimation, ptr %28, i32 0, i32 8
  %30 = load ptr, ptr %29, align 8
  %31 = load ptr, ptr %5, align 8
  %32 = getelementptr inbounds nuw %struct.aiAnimation, ptr %31, i32 0, i32 7
  %33 = load i32, ptr %32, align 8
  call void @_ZN6Assimp12CopyPtrArrayI15aiMeshMorphAnimEEvRPPT_PKPKS2_j(ptr noundef nonnull align 8 dereferenceable(8) %27, ptr noundef %30, i32 noundef %33)
  call void @llvm.lifetime.end.p0(i64 8, ptr %5) #17
  br label %34

34:                                               ; preds = %12, %11
  ret void
}