; Function Attrs: mustprogress uwtable
define void @_ZN6Assimp13SceneCombiner4CopyEPP11aiAnimationPKS1_(ptr noundef writeonly captures(address_is_null) %0, ptr noundef readonly captures(address) %1) local_unnamed_addr #0 align 2 {
  %3 = icmp eq ptr %0, null
  %4 = icmp eq ptr %1, null
  %or.cond = or i1 %3, %4
  br i1 %or.cond, label %_ZN6Assimp12CopyPtrArrayI15aiMeshMorphAnimEEvRPPT_PKPKS2_j.exit, label %5

5:                                                ; preds = %2
  %6 = tail call noalias noundef nonnull dereferenceable(1096) ptr @_Znwm(i64 noundef 1096) #22
  tail call void @llvm.memset.p0.i64(ptr noundef nonnull align 8 dereferenceable(1096) %6, i8 0, i64 1028, i1 false)
  %7 = getelementptr inbounds nuw i8, ptr %6, i64 1032
  %8 = getelementptr inbounds nuw i8, ptr %6, i64 1048
  %9 = getelementptr inbounds nuw i8, ptr %6, i64 1056
  %10 = getelementptr inbounds nuw i8, ptr %6, i64 1080
  %11 = getelementptr inbounds nuw i8, ptr %6, i64 1088
  store ptr %6, ptr %0, align 8
  %12 = icmp eq ptr %6, %1
  br i1 %12, label %_ZN11aiAnimationaSERKS_.exit, label %13

13:                                               ; preds = %5
  %14 = load i32, ptr %1, align 4
  %spec.select.i.i = tail call i32 @llvm.umin.i32(i32 %14, i32 1023)
  store i32 %spec.select.i.i, ptr %6, align 4
  %15 = getelementptr inbounds nuw i8, ptr %6, i64 4
  %16 = getelementptr inbounds nuw i8, ptr %1, i64 4
  %17 = zext nneg i32 %spec.select.i.i to i64
  tail call void @llvm.memcpy.p0.p0.i64(ptr nonnull align 4 %15, ptr nonnull align 4 %16, i64 %17, i1 false)
  %18 = getelementptr inbounds nuw [1024 x i8], ptr %15, i64 0, i64 %17
  store i8 0, ptr %18, align 1
  br label %_ZN11aiAnimationaSERKS_.exit

_ZN11aiAnimationaSERKS_.exit:                     ; preds = %5, %13
  %19 = getelementptr inbounds nuw i8, ptr %1, i64 1032
  tail call void @llvm.memcpy.p0.p0.i64(ptr noundef nonnull align 8 dereferenceable(64) %7, ptr noundef nonnull align 8 dereferenceable(64) %19, i64 64, i1 false)
  %20 = getelementptr inbounds nuw i8, ptr %1, i64 1056
  %21 = load ptr, ptr %20, align 8
  %22 = load i32, ptr %8, align 8
  %.not.i = icmp eq i32 %22, 0
  br i1 %.not.i, label %23, label %24

23:                                               ; preds = %_ZN11aiAnimationaSERKS_.exit
  store ptr null, ptr %9, align 8
  br label %_ZN6Assimp12CopyPtrArrayI10aiNodeAnimEEvRPPT_PKPKS2_j.exit

24:                                               ; preds = %_ZN11aiAnimationaSERKS_.exit
  %25 = zext i32 %22 to i64
  %26 = shl nuw nsw i64 %25, 3
  %27 = tail call noalias noundef nonnull ptr @_Znam(i64 noundef %26) #22
  store ptr %27, ptr %9, align 8
  br label %28

28:                                               ; preds = %28, %24
  %indvars.iv.i = phi i64 [ 0, %24 ], [ %indvars.iv.next.i, %28 ]
  %29 = load ptr, ptr %9, align 8
  %30 = getelementptr inbounds nuw ptr, ptr %29, i64 %indvars.iv.i
  %31 = getelementptr inbounds nuw ptr, ptr %21, i64 %indvars.iv.i
  %32 = load ptr, ptr %31, align 8
  tail call void @_ZN6Assimp13SceneCombiner4CopyEPP10aiNodeAnimPKS1_(ptr noundef %30, ptr noundef %32)
  %indvars.iv.next.i = add nuw nsw i64 %indvars.iv.i, 1
  %exitcond.not.i = icmp eq i64 %indvars.iv.next.i, %25
  br i1 %exitcond.not.i, label %_ZN6Assimp12CopyPtrArrayI10aiNodeAnimEEvRPPT_PKPKS2_j.exit, label %28, !llvm.loop !44

_ZN6Assimp12CopyPtrArrayI10aiNodeAnimEEvRPPT_PKPKS2_j.exit: ; preds = %28, %23
  %33 = getelementptr inbounds nuw i8, ptr %1, i64 1088
  %34 = load ptr, ptr %33, align 8
  %35 = load i32, ptr %10, align 8
  %.not.i13 = icmp eq i32 %35, 0
  br i1 %.not.i13, label %36, label %37

36:                                               ; preds = %_ZN6Assimp12CopyPtrArrayI10aiNodeAnimEEvRPPT_PKPKS2_j.exit
  store ptr null, ptr %11, align 8
  br label %_ZN6Assimp12CopyPtrArrayI15aiMeshMorphAnimEEvRPPT_PKPKS2_j.exit

37:                                               ; preds = %_ZN6Assimp12CopyPtrArrayI10aiNodeAnimEEvRPPT_PKPKS2_j.exit
  %38 = zext i32 %35 to i64
  %39 = shl nuw nsw i64 %38, 3
  %40 = tail call noalias noundef nonnull ptr @_Znam(i64 noundef %39) #22
  store ptr %40, ptr %11, align 8
  br label %41

41:                                               ; preds = %41, %37
  %indvars.iv.i14 = phi i64 [ 0, %37 ], [ %indvars.iv.next.i15, %41 ]
  %42 = load ptr, ptr %11, align 8
  %43 = getelementptr inbounds nuw ptr, ptr %42, i64 %indvars.iv.i14
  %44 = getelementptr inbounds nuw ptr, ptr %34, i64 %indvars.iv.i14
  %45 = load ptr, ptr %44, align 8
  tail call void @_ZN6Assimp13SceneCombiner4CopyEPP15aiMeshMorphAnimPKS1_(ptr noundef %43, ptr noundef %45)
  %indvars.iv.next.i15 = add nuw nsw i64 %indvars.iv.i14, 1
  %exitcond.not.i16 = icmp eq i64 %indvars.iv.next.i15, %38
  br i1 %exitcond.not.i16, label %_ZN6Assimp12CopyPtrArrayI15aiMeshMorphAnimEEvRPPT_PKPKS2_j.exit, label %41, !llvm.loop !46

_ZN6Assimp12CopyPtrArrayI15aiMeshMorphAnimEEvRPPT_PKPKS2_j.exit: ; preds = %41, %36, %2
  ret void
}